target datalayout = "e-m:e-p270:32:32-p271:32:32-p272:64:64-i64:64-i128:128-f80:128-n8:16:32:64-S128"
target triple = "x86_64-pc-linux-gnu"

%struct.xcgroup_t = type { ptr, ptr, ptr, i32, i32, i32 }
%struct.bpf_program = type { i64, i64, ptr }
%struct.task_cg_info_t = type { %struct.xcgroup_t, i32, %struct.bpf_program }
%struct.foreach_pid_array_t = type { i32, ptr }

@.str.53 = private unnamed_addr constant [12 x i8] c"cgroup_v2.c\00", align 1
@__func__._get_task_pids = private unnamed_addr constant [15 x i8] c"_get_task_pids\00", align 1

; Function Attrs: nounwind uwtable
define internal i32 @_get_task_pids(ptr noundef %0, ptr noundef %1) #0 {
  %3 = alloca ptr, align 8
  %4 = alloca ptr, align 8
  %5 = alloca ptr, align 8
  %6 = alloca ptr, align 8
  %7 = alloca ptr, align 8
  %8 = alloca i32, align 4
  store ptr %0, ptr %3, align 8
  store ptr %1, ptr %4, align 8
  call void @llvm.lifetime.start.p0(i64 8, ptr %5) #10
  %9 = load ptr, ptr %3, align 8
  store ptr %9, ptr %5, align 8
  call void @llvm.lifetime.start.p0(i64 8, ptr %6) #10
  %10 = load ptr, ptr %4, align 8
  store ptr %10, ptr %6, align 8
  call void @llvm.lifetime.start.p0(i64 8, ptr %7) #10
  store ptr null, ptr %7, align 8
  call void @llvm.lifetime.start.p0(i64 4, ptr %8) #10
  store i32 0, ptr %8, align 4
  %11 = load ptr, ptr %5, align 8
  %12 = getelementptr inbounds nuw %struct.task_cg_info_t, ptr %11, i32 0, i32 0
  %13 = call i32 @common_cgroup_get_pids(ptr noundef %12, ptr noundef %7, ptr noundef %8)
  %14 = load ptr, ptr %6, align 8
  %15 = getelementptr inbounds nuw %struct.foreach_pid_array_t, ptr %14, i32 0, i32 1
  %16 = load ptr, ptr %15, align 8
  %17 = icmp ne ptr %16, null
  br i1 %17, label %18, label %45

18:                                               ; preds = %2
  %19 = load ptr, ptr %6, align 8
  %20 = getelementptr inbounds nuw %struct.foreach_pid_array_t, ptr %19, i32 0, i32 1
  %21 = load ptr, ptr %6, align 8
  %22 = getelementptr inbounds nuw %struct.foreach_pid_array_t, ptr %21, i32 0, i32 0
  %23 = load i32, ptr %22, align 8
  %24 = load i32, ptr %8, align 4
  %25 = add nsw i32 %23, %24
  %26 = sext i32 %25 to i64
  %27 = call ptr @slurm_xrecalloc(ptr noundef %20, i64 noundef %26, i64 noundef 4, i1 noundef zeroext true, i1 noundef zeroext false, ptr noundef @.str.53, i32 noundef 676, ptr noundef @__func__._get_task_pids)
  %28 = load ptr, ptr %6, align 8
  %29 = getelementptr inbounds nuw %struct.foreach_pid_array_t, ptr %28, i32 0, i32 1
  %30 = load ptr, ptr %29, align 8
  %31 = load ptr, ptr %6, align 8
  %32 = getelementptr inbounds nuw %struct.foreach_pid_array_t, ptr %31, i32 0, i32 0
  %33 = load i32, ptr %32, align 8
  %34 = sext i32 %33 to i64
  %35 = getelementptr inbounds i32, ptr %30, i64 %34
  %36 = load ptr, ptr %7, align 8
  %37 = load i32, ptr %8, align 4
  %38 = sext i32 %37 to i64
  %39 = mul i64 4, %38
  call void @llvm.memcpy.p0.p0.i64(ptr align 4 %35, ptr align 4 %36, i64 %39, i1 false)
  %40 = load i32, ptr %8, align 4
  %41 = load ptr, ptr %6, align 8
  %42 = getelementptr inbounds nuw %struct.foreach_pid_array_t, ptr %41, i32 0, i32 0
  %43 = load i32, ptr %42, align 8
  %44 = add nsw i32 %43, %40
  store i32 %44, ptr %42, align 8
  br label %52

45:                                               ; preds = %2
  %46 = load ptr, ptr %7, align 8
  %47 = load ptr, ptr %6, align 8
  %48 = getelementptr inbounds nuw %struct.foreach_pid_array_t, ptr %47, i32 0, i32 1
  store ptr %46, ptr %48, align 8
  store ptr null, ptr %7, align 8
  %49 = load i32, ptr %8, align 4
  %50 = load ptr, ptr %6, align 8
  %51 = getelementptr inbounds nuw %struct.foreach_pid_array_t, ptr %50, i32 0, i32 0
  store i32 %49, ptr %51, align 8
  br label %52

52:                                               ; preds = %45, %18
  call void @slurm_xfree(ptr noundef %7)
  call void @llvm.lifetime.end.p0(i64 4, ptr %8) #10
  call void @llvm.lifetime.end.p0(i64 8, ptr %7) #10
  call void @llvm.lifetime.end.p0(i64 8, ptr %6) #10
  call void @llvm.lifetime.end.p0(i64 8, ptr %5) #10
  ret i32 0
}