; Function Attrs: nounwind uwtable
define internal noundef i32 @_get_task_pids(ptr noundef %0, ptr noundef %1) #0 {
  %3 = alloca ptr, align 8
  %4 = alloca i32, align 4
  call void @llvm.lifetime.start.p0(i64 8, ptr nonnull %3) #17
  store ptr null, ptr %3, align 8
  call void @llvm.lifetime.start.p0(i64 4, ptr nonnull %4) #17
  store i32 0, ptr %4, align 4
  %5 = call i32 @common_cgroup_get_pids(ptr noundef %0, ptr noundef nonnull %3, ptr noundef nonnull %4) #17
  %6 = getelementptr inbounds nuw i8, ptr %1, i64 8
  %7 = load ptr, ptr %6, align 8
  %.not = icmp eq ptr %7, null
  br i1 %.not, label %25, label %8

8:                                                ; preds = %2
  %9 = load i32, ptr %1, align 8
  %10 = load i32, ptr %4, align 4
  %11 = add nsw i32 %10, %9
  %12 = sext i32 %11 to i64
  %13 = call ptr @slurm_xrecalloc(ptr noundef nonnull %6, i64 noundef %12, i64 noundef 4, i1 noundef zeroext true, i1 noundef zeroext false, ptr noundef nonnull @.str.53, i32 noundef 676, ptr noundef nonnull @__func__._get_task_pids) #17
  %14 = load ptr, ptr %6, align 8
  %15 = load i32, ptr %1, align 8
  %16 = sext i32 %15 to i64
  %17 = getelementptr inbounds i32, ptr %14, i64 %16
  %18 = load ptr, ptr %3, align 8
  %19 = load i32, ptr %4, align 4
  %20 = sext i32 %19 to i64
  %21 = shl nsw i64 %20, 2
  call void @llvm.memcpy.p0.p0.i64(ptr align 4 %17, ptr align 4 %18, i64 %21, i1 false)
  %22 = load i32, ptr %4, align 4
  %23 = load i32, ptr %1, align 8
  %24 = add nsw i32 %23, %22
  br label %28

25:                                               ; preds = %2
  %26 = load ptr, ptr %3, align 8
  store ptr %26, ptr %6, align 8
  store ptr null, ptr %3, align 8
  %27 = load i32, ptr %4, align 4
  br label %28

28:                                               ; preds = %25, %8
  %storemerge = phi i32 [ %27, %25 ], [ %24, %8 ]
  store i32 %storemerge, ptr %1, align 8
  call void @slurm_xfree(ptr noundef nonnull %3) #17
  call void @llvm.lifetime.end.p0(i64 4, ptr nonnull %4) #17
  call void @llvm.lifetime.end.p0(i64 8, ptr nonnull %3) #17
  ret i32 0
}